target datalayout = "e-m:e-p270:32:32-p271:32:32-p272:64:64-i64:64-i128:128-f80:128-n8:16:32:64-S128"
target triple = "x86_64-pc-linux-gnu"

%struct.QTailQLink = type { ptr, ptr }
%struct.DriveInfo = type { i32, i32, i32, i32, i8, i32, ptr, %union.anon.10 }
%union.anon.10 = type { %struct.QTailQLink }

@.str = private unnamed_addr constant [22 x i8] c"qemu_in_main_thread()\00", align 1
@.str.1 = private unnamed_addr constant [19 x i8] c"../qemu/blockdev.c\00", align 1
@__PRETTY_FUNCTION__.blockdev_auto_del = private unnamed_addr constant [39 x i8] c"void blockdev_auto_del(BlockBackend *)\00", align 1

; Function Attrs: nounwind sspstrong uwtable
define dso_local void @blockdev_auto_del(ptr noundef %0) #0 {
  %2 = alloca ptr, align 8
  %3 = alloca ptr, align 8
  store ptr %0, ptr %2, align 8
  call void @llvm.lifetime.start.p0(i64 8, ptr %3) #16
  %4 = load ptr, ptr %2, align 8
  %5 = call ptr @blk_legacy_dinfo(ptr noundef %4)
  store ptr %5, ptr %3, align 8
  br label %6

6:                                                ; preds = %1
  %7 = call zeroext i1 @qemu_in_main_thread()
  br i1 %7, label %8, label %9

8:                                                ; preds = %6
  br label %10

9:                                                ; preds = %6
  call void @__assert_fail(ptr noundef @.str, ptr noundef @.str.1, i32 noundef 179, ptr noundef @__PRETTY_FUNCTION__.blockdev_auto_del) #15
  unreachable

10:                                               ; preds = %8
  br label %11

11:                                               ; preds = %10
  br label %12

12:                                               ; preds = %11
  %13 = load ptr, ptr %3, align 8
  %14 = icmp ne ptr %13, null
  br i1 %14, label %15, label %23

15:                                               ; preds = %12
  %16 = load ptr, ptr %3, align 8
  %17 = getelementptr inbounds nuw %struct.DriveInfo, ptr %16, i32 0, i32 3
  %18 = load i32, ptr %17, align 4
  %19 = icmp ne i32 %18, 0
  br i1 %19, label %20, label %23

20:                                               ; preds = %15
  %21 = load ptr, ptr %2, align 8
  call void @monitor_remove_blk(ptr noundef %21)
  %22 = load ptr, ptr %2, align 8
  call void @blk_unref(ptr noundef %22)
  br label %23

23:                                               ; preds = %20, %15, %12
  call void @llvm.lifetime.end.p0(i64 8, ptr %3) #16
  ret void
}