; Function Attrs: nounwind sspstrong uwtable
define dso_local void @blockdev_auto_del(ptr noundef %0) local_unnamed_addr #0 {
  %2 = tail call ptr @blk_legacy_dinfo(ptr noundef %0) #14
  %3 = tail call zeroext i1 @qemu_in_main_thread() #14
  br i1 %3, label %5, label %4

4:                                                ; preds = %1
  tail call void @__assert_fail(ptr noundef nonnull @.str, ptr noundef nonnull @.str.1, i32 noundef 179, ptr noundef nonnull @__PRETTY_FUNCTION__.blockdev_auto_del) #15
  unreachable

5:                                                ; preds = %1
  %.not = icmp eq ptr %2, null
  br i1 %.not, label %10, label %6

6:                                                ; preds = %5
  %7 = getelementptr inbounds nuw i8, ptr %2, i64 12
  %8 = load i32, ptr %7, align 4
  %.not5 = icmp eq i32 %8, 0
  br i1 %.not5, label %10, label %9

9:                                                ; preds = %6
  tail call void @monitor_remove_blk(ptr noundef %0) #14
  tail call void @blk_unref(ptr noundef %0) #14
  br label %10

10:                                               ; preds = %9, %6, %5
  ret void
}